target datalayout = "e-m:e-p270:32:32-p271:32:32-p272:64:64-i64:64-i128:128-f80:128-n8:16:32:64-S128"
target triple = "x86_64-unknown-linux-gnu"

%"class.std::__cxx11::basic_string" = type { %"struct.std::__cxx11::basic_string<char>::_Alloc_hider", i64, %union.anon }
%"struct.std::__cxx11::basic_string<char>::_Alloc_hider" = type { ptr }
%union.anon = type { i64, [8 x i8] }
%"class.Imf_3_2::Array2D" = type { i64, i64, ptr }
%"struct.Imf_3_2::(anonymous namespace)::LineBuffer" = type { ptr, ptr, i64, i64, i32, i32, ptr, i32, i32, i8, %"class.std::__cxx11::basic_string", %"class.Imf_3_2::Array2D", %"class.IlmThread_3_2::Semaphore" }
%"class.IlmThread_3_2::Semaphore" = type { ptr, %union.sem_t }
%union.sem_t = type { i64, [24 x i8] }
%"class.Imf_3_2::(anonymous namespace)::LineBufferTask" = type { %"class.IlmThread_3_2::Task", ptr, ptr, i32, i32 }
%"class.IlmThread_3_2::Task" = type { ptr, ptr }

; Function Attrs: mustprogress uwtable
define internal void @_ZN7Imf_3_212_GLOBAL__N_110LineBuffer4postEv(ptr noundef nonnull align 8 dereferenceable(160) %this) #4 align 2 {
entry:
  %this.addr = alloca ptr, align 8
  store ptr %this, ptr %this.addr, align 8
  %this1 = load ptr, ptr %this.addr, align 8
  %_sem = getelementptr inbounds %"struct.Imf_3_2::(anonymous namespace)::LineBuffer", ptr %this1, i32 0, i32 12
  call void @_ZN13IlmThread_3_29Semaphore4postEv(ptr noundef nonnull align 8 dereferenceable(40) %_sem)
  ret void
}

; Function Attrs: mustprogress nounwind uwtable
define internal void @_ZN7Imf_3_212_GLOBAL__N_114LineBufferTaskD2Ev(ptr noundef nonnull align 8 dereferenceable(40) %this) unnamed_addr #5 align 2 personality ptr @__gxx_personality_v0 {
entry:
  %this.addr = alloca ptr, align 8
  store ptr %this, ptr %this.addr, align 8
  %this1 = load ptr, ptr %this.addr, align 8
  store ptr getelementptr inbounds ({ [5 x ptr] }, ptr @_ZTVN7Imf_3_212_GLOBAL__N_114LineBufferTaskE, i32 0, i32 0, i32 2), ptr %this1, align 8
  %_lineBuffer = getelementptr inbounds %"class.Imf_3_2::(anonymous namespace)::LineBufferTask", ptr %this1, i32 0, i32 2
  %0 = load ptr, ptr %_lineBuffer, align 8
  invoke void @_ZN7Imf_3_212_GLOBAL__N_110LineBuffer4postEv(ptr noundef nonnull align 8 dereferenceable(160) %0)
          to label %invoke.cont unwind label %terminate.lpad

invoke.cont:                                      ; preds = %entry
  call void @_ZN13IlmThread_3_24TaskD2Ev(ptr noundef nonnull align 8 dereferenceable(16) %this1) #3
  ret void

terminate.lpad:                                   ; preds = %entry
  %1 = landingpad { ptr, i32 }
          catch ptr null
  %2 = extractvalue { ptr, i32 } %1, 0
  call void @__clang_call_terminate(ptr %2) #18
  unreachable
}

; Function Attrs: mustprogress nounwind uwtable
define internal void @_ZN7Imf_3_212_GLOBAL__N_114LineBufferTaskD0Ev(ptr noundef nonnull align 8 dereferenceable(40) %this) unnamed_addr #5 align 2 {
entry:
  %this.addr = alloca ptr, align 8
  store ptr %this, ptr %this.addr, align 8
  %this1 = load ptr, ptr %this.addr, align 8
  call void @_ZN7Imf_3_212_GLOBAL__N_114LineBufferTaskD2Ev(ptr noundef nonnull align 8 dereferenceable(40) %this1) #3
  call void @_ZdlPv(ptr noundef %this1) #17
  ret void
}