; Function Attrs: mustprogress nounwind uwtable
define internal void @_ZN7Imf_3_212_GLOBAL__N_114LineBufferTaskD0Ev(ptr noundef nonnull align 8 dereferenceable(40) %this) unnamed_addr #4 align 2 personality ptr @__gxx_personality_v0 {
entry:
  store ptr getelementptr inbounds ({ [5 x ptr] }, ptr @_ZTVN7Imf_3_212_GLOBAL__N_114LineBufferTaskE, i64 0, i32 0, i64 2), ptr %this, align 8
  %_lineBuffer.i = getelementptr inbounds i8, ptr %this, i64 24
  %0 = load ptr, ptr %_lineBuffer.i, align 8
  %_sem.i.i = getelementptr inbounds i8, ptr %0, i64 120
  invoke void @_ZN13IlmThread_3_29Semaphore4postEv(ptr noundef nonnull align 8 dereferenceable(40) %_sem.i.i)
          to label %_ZN7Imf_3_212_GLOBAL__N_114LineBufferTaskD2Ev.exit unwind label %terminate.lpad.i

terminate.lpad.i:                                 ; preds = %entry
  %1 = landingpad { ptr, i32 }
          catch ptr null
  %2 = extractvalue { ptr, i32 } %1, 0
  tail call void @__clang_call_terminate(ptr %2) #23
  unreachable

_ZN7Imf_3_212_GLOBAL__N_114LineBufferTaskD2Ev.exit: ; preds = %entry
  tail call void @_ZN13IlmThread_3_24TaskD2Ev(ptr noundef nonnull align 8 dereferenceable(16) %this) #21
  tail call void @_ZdlPv(ptr noundef nonnull %this) #24
  ret void
}